target datalayout = "e-m:e-p270:32:32-p271:32:32-p272:64:64-i64:64-i128:128-f80:128-n8:16:32:64-S128"
target triple = "x86_64-unknown-linux-gnu"

%"class.v8::IndirectHandleBase" = type { ptr }
%"class.node::MemoryRetainer" = type { ptr }
%"class.node::crypto::CipherBase" = type <{ %"class.node::BaseObject", %"class.std::unique_ptr.280", i32, i32, i32, [16 x i8], i8, [3 x i8], i32, [4 x i8] }>
%"class.node::BaseObject" = type { %"class.node::MemoryRetainer", %"class.v8::Global.278", ptr, ptr }
%"class.v8::Global.278" = type { %"class.v8::PersistentBase.279" }
%"class.v8::PersistentBase.279" = type { %"class.v8::IndirectHandleBase" }
%"class.std::unique_ptr.280" = type { %"struct.std::__uniq_ptr_data.281" }
%"struct.std::__uniq_ptr_data.281" = type { %"class.std::__uniq_ptr_impl.282" }
%"class.std::__uniq_ptr_impl.282" = type { %"class.std::tuple.283" }
%"class.std::tuple.283" = type { %"struct.std::_Tuple_impl.284" }
%"struct.std::_Tuple_impl.284" = type { %"struct.std::_Head_base.287" }
%"struct.std::_Head_base.287" = type { ptr }

; Function Attrs: mustprogress nounwind uwtable
define linkonce_odr dso_local noundef nonnull align 8 dereferenceable(8) ptr @_ZNSt10_Head_baseILm0EP17evp_cipher_ctx_stLb0EE7_M_headERKS2_(ptr noundef nonnull align 8 dereferenceable(8) %__b) #4 comdat align 2 {
entry:
  %__b.addr = alloca ptr, align 8
  store ptr %__b, ptr %__b.addr, align 8
  %0 = load ptr, ptr %__b.addr, align 8
  %_M_head_impl = getelementptr inbounds %"struct.std::_Head_base.287", ptr %0, i32 0, i32 0
  ret ptr %_M_head_impl
}

; Function Attrs: mustprogress nounwind uwtable
define linkonce_odr dso_local noundef nonnull align 8 dereferenceable(8) ptr @_ZNSt11_Tuple_implILm0EJP17evp_cipher_ctx_stN4node15FunctionDeleterIS0_XadL_Z19EVP_CIPHER_CTX_freeEEEEEE7_M_headERKS5_(ptr noundef nonnull align 8 dereferenceable(8) %__t) #4 comdat align 2 {
entry:
  %__t.addr = alloca ptr, align 8
  store ptr %__t, ptr %__t.addr, align 8
  %0 = load ptr, ptr %__t.addr, align 8
  %call = call noundef nonnull align 8 dereferenceable(8) ptr @_ZNSt10_Head_baseILm0EP17evp_cipher_ctx_stLb0EE7_M_headERKS2_(ptr noundef nonnull align 8 dereferenceable(8) %0) #3
  ret ptr %call
}

; Function Attrs: mustprogress nounwind uwtable
define linkonce_odr dso_local noundef nonnull align 8 dereferenceable(8) ptr @_ZSt12__get_helperILm0EP17evp_cipher_ctx_stJN4node15FunctionDeleterIS0_XadL_Z19EVP_CIPHER_CTX_freeEEEEEERKT0_RKSt11_Tuple_implIXT_EJS5_DpT1_EE(ptr noundef nonnull align 8 dereferenceable(8) %__t) #4 comdat {
entry:
  %__t.addr = alloca ptr, align 8
  store ptr %__t, ptr %__t.addr, align 8
  %0 = load ptr, ptr %__t.addr, align 8
  %call = call noundef nonnull align 8 dereferenceable(8) ptr @_ZNSt11_Tuple_implILm0EJP17evp_cipher_ctx_stN4node15FunctionDeleterIS0_XadL_Z19EVP_CIPHER_CTX_freeEEEEEE7_M_headERKS5_(ptr noundef nonnull align 8 dereferenceable(8) %0) #3
  ret ptr %call
}

; Function Attrs: mustprogress nounwind uwtable
define linkonce_odr dso_local noundef nonnull align 8 dereferenceable(8) ptr @_ZSt3getILm0EJP17evp_cipher_ctx_stN4node15FunctionDeleterIS0_XadL_Z19EVP_CIPHER_CTX_freeEEEEEERKNSt13tuple_elementIXT_ESt5tupleIJDpT0_EEE4typeERKS9_(ptr noundef nonnull align 8 dereferenceable(8) %__t) #4 comdat {
entry:
  %__t.addr = alloca ptr, align 8
  store ptr %__t, ptr %__t.addr, align 8
  %0 = load ptr, ptr %__t.addr, align 8
  %call = call noundef nonnull align 8 dereferenceable(8) ptr @_ZSt12__get_helperILm0EP17evp_cipher_ctx_stJN4node15FunctionDeleterIS0_XadL_Z19EVP_CIPHER_CTX_freeEEEEEERKT0_RKSt11_Tuple_implIXT_EJS5_DpT1_EE(ptr noundef nonnull align 8 dereferenceable(8) %0) #3
  ret ptr %call
}

; Function Attrs: mustprogress nounwind uwtable
define linkonce_odr dso_local noundef ptr @_ZNKSt15__uniq_ptr_implI17evp_cipher_ctx_stN4node15FunctionDeleterIS0_XadL_Z19EVP_CIPHER_CTX_freeEEEEE6_M_ptrEv(ptr noundef nonnull align 8 dereferenceable(8) %this) #4 comdat align 2 {
entry:
  %this.addr = alloca ptr, align 8
  store ptr %this, ptr %this.addr, align 8
  %this1 = load ptr, ptr %this.addr, align 8
  %_M_t = getelementptr inbounds %"class.std::__uniq_ptr_impl.282", ptr %this1, i32 0, i32 0
  %call = call noundef nonnull align 8 dereferenceable(8) ptr @_ZSt3getILm0EJP17evp_cipher_ctx_stN4node15FunctionDeleterIS0_XadL_Z19EVP_CIPHER_CTX_freeEEEEEERKNSt13tuple_elementIXT_ESt5tupleIJDpT0_EEE4typeERKS9_(ptr noundef nonnull align 8 dereferenceable(8) %_M_t) #3
  %0 = load ptr, ptr %call, align 8
  ret ptr %0
}

; Function Attrs: mustprogress nounwind uwtable
define linkonce_odr dso_local noundef ptr @_ZNKSt10unique_ptrI17evp_cipher_ctx_stN4node15FunctionDeleterIS0_XadL_Z19EVP_CIPHER_CTX_freeEEEEE3getEv(ptr noundef nonnull align 8 dereferenceable(8) %this) #4 comdat align 2 {
entry:
  %this.addr = alloca ptr, align 8
  store ptr %this, ptr %this.addr, align 8
  %this1 = load ptr, ptr %this.addr, align 8
  %_M_t = getelementptr inbounds %"class.std::unique_ptr.280", ptr %this1, i32 0, i32 0
  %call = call noundef ptr @_ZNKSt15__uniq_ptr_implI17evp_cipher_ctx_stN4node15FunctionDeleterIS0_XadL_Z19EVP_CIPHER_CTX_freeEEEEE6_M_ptrEv(ptr noundef nonnull align 8 dereferenceable(8) %_M_t) #3
  ret ptr %call
}

; Function Attrs: mustprogress nounwind uwtable
define dso_local noundef zeroext i1 @_ZN4node6crypto10CipherBase25MaybePassAuthTagToOpenSSLEv(ptr noundef nonnull align 8 dereferenceable(76) %this) #4 align 2 {
entry:
  %retval = alloca i1, align 1
  %this.addr = alloca ptr, align 8
  store ptr %this, ptr %this.addr, align 8
  %this1 = load ptr, ptr %this.addr, align 8
  %auth_tag_state_ = getelementptr inbounds %"class.node::crypto::CipherBase", ptr %this1, i32 0, i32 3
  %0 = load i32, ptr %auth_tag_state_, align 4
  %cmp = icmp eq i32 %0, 1
  br i1 %cmp, label %if.then, label %if.end5

if.then:                                          ; preds = %entry
  %ctx_ = getelementptr inbounds %"class.node::crypto::CipherBase", ptr %this1, i32 0, i32 1
  %call = call noundef ptr @_ZNKSt10unique_ptrI17evp_cipher_ctx_stN4node15FunctionDeleterIS0_XadL_Z19EVP_CIPHER_CTX_freeEEEEE3getEv(ptr noundef nonnull align 8 dereferenceable(8) %ctx_) #3
  %auth_tag_len_ = getelementptr inbounds %"class.node::crypto::CipherBase", ptr %this1, i32 0, i32 4
  %1 = load i32, ptr %auth_tag_len_, align 8
  %auth_tag_ = getelementptr inbounds %"class.node::crypto::CipherBase", ptr %this1, i32 0, i32 5
  %arraydecay = getelementptr inbounds [16 x i8], ptr %auth_tag_, i64 0, i64 0
  %call2 = call i32 @EVP_CIPHER_CTX_ctrl(ptr noundef %call, i32 noundef 17, i32 noundef %1, ptr noundef %arraydecay)
  %tobool = icmp ne i32 %call2, 0
  br i1 %tobool, label %if.end, label %if.then3

if.then3:                                         ; preds = %if.then
  store i1 false, ptr %retval, align 1
  br label %return

if.end:                                           ; preds = %if.then
  %auth_tag_state_4 = getelementptr inbounds %"class.node::crypto::CipherBase", ptr %this1, i32 0, i32 3
  store i32 2, ptr %auth_tag_state_4, align 4
  br label %if.end5

if.end5:                                          ; preds = %if.end, %entry
  store i1 true, ptr %retval, align 1
  br label %return

return:                                           ; preds = %if.end5, %if.then3
  %2 = load i1, ptr %retval, align 1
  ret i1 %2
}