; Function Attrs: mustprogress nounwind uwtable
define dso_local noundef zeroext i1 @_ZN4node6crypto10CipherBase25MaybePassAuthTagToOpenSSLEv(ptr noundef nonnull align 8 dereferenceable(76) %this) local_unnamed_addr #3 align 2 {
entry:
  %auth_tag_state_ = getelementptr inbounds i8, ptr %this, i64 44
  %0 = load i32, ptr %auth_tag_state_, align 4
  %cmp = icmp eq i32 %0, 1
  br i1 %cmp, label %if.then, label %return

if.then:                                          ; preds = %entry
  %ctx_ = getelementptr inbounds i8, ptr %this, i64 32
  %1 = load ptr, ptr %ctx_, align 8
  %auth_tag_len_ = getelementptr inbounds i8, ptr %this, i64 48
  %2 = load i32, ptr %auth_tag_len_, align 8
  %auth_tag_ = getelementptr inbounds i8, ptr %this, i64 52
  %call2 = tail call i32 @EVP_CIPHER_CTX_ctrl(ptr noundef %1, i32 noundef 17, i32 noundef %2, ptr noundef nonnull %auth_tag_) #20
  %tobool.not = icmp eq i32 %call2, 0
  br i1 %tobool.not, label %return, label %if.end

if.end:                                           ; preds = %if.then
  store i32 2, ptr %auth_tag_state_, align 4
  br label %return

return:                                           ; preds = %entry, %if.end, %if.then
  %retval.0 = phi i1 [ false, %if.then ], [ true, %if.end ], [ true, %entry ]
  ret i1 %retval.0
}